target datalayout = "e-m:e-p270:32:32-p271:32:32-p272:64:64-i64:64-i128:128-f80:128-n8:16:32:64-S128"
target triple = "x86_64-pc-linux-gnu"

%struct.tm = type { i32, i32, i32, i32, i32, i32, i32, i32, i32, i64, ptr }

@.str.83 = private unnamed_addr constant [28 x i8] c"%d-%02d-%02d %02d:%02d:%02d\00", align 1

; Function Attrs: mustprogress nounwind uwtable
define hidden noundef ptr @_ZN2os17local_time_stringEPcm(ptr noundef %0, i64 noundef %1) #1 align 2 {
  %3 = alloca ptr, align 8
  %4 = alloca i64, align 8
  %5 = alloca %struct.tm, align 8
  %6 = alloca i64, align 8
  store ptr %0, ptr %3, align 8
  store i64 %1, ptr %4, align 8
  %7 = call i64 @time(ptr noundef %6) #7
  %8 = call ptr @localtime_r(ptr noundef %6, ptr noundef %5) #7
  %9 = load ptr, ptr %3, align 8
  %10 = load i64, ptr %4, align 8
  %11 = getelementptr inbounds %struct.tm, ptr %5, i32 0, i32 5
  %12 = load i32, ptr %11, align 4
  %13 = add nsw i32 %12, 1900
  %14 = getelementptr inbounds %struct.tm, ptr %5, i32 0, i32 4
  %15 = load i32, ptr %14, align 8
  %16 = add nsw i32 %15, 1
  %17 = getelementptr inbounds %struct.tm, ptr %5, i32 0, i32 3
  %18 = load i32, ptr %17, align 4
  %19 = getelementptr inbounds %struct.tm, ptr %5, i32 0, i32 2
  %20 = load i32, ptr %19, align 8
  %21 = getelementptr inbounds %struct.tm, ptr %5, i32 0, i32 1
  %22 = load i32, ptr %21, align 4
  %23 = getelementptr inbounds %struct.tm, ptr %5, i32 0, i32 0
  %24 = load i32, ptr %23, align 8
  %25 = call i32 (ptr, i64, ptr, ...) @jio_snprintf(ptr noundef %9, i64 noundef %10, ptr noundef @.str.83, i32 noundef %13, i32 noundef %16, i32 noundef %18, i32 noundef %20, i32 noundef %22, i32 noundef %24)
  %26 = load ptr, ptr %3, align 8
  ret ptr %26
}