; Function Attrs: mustprogress nounwind uwtable
define hidden noundef ptr @_ZN2os17local_time_stringEPcm(ptr noundef returned %0, i64 noundef %1) local_unnamed_addr #1 align 2 {
  %3 = alloca %struct.tm, align 8
  %4 = alloca i64, align 8
  %5 = call i64 @time(ptr noundef nonnull %4) #25
  %6 = call ptr @localtime_r(ptr noundef nonnull %4, ptr noundef nonnull %3) #25
  %7 = getelementptr inbounds i8, ptr %3, i64 20
  %8 = load i32, ptr %7, align 4
  %9 = add nsw i32 %8, 1900
  %10 = getelementptr inbounds i8, ptr %3, i64 16
  %11 = load i32, ptr %10, align 8
  %12 = add nsw i32 %11, 1
  %13 = getelementptr inbounds i8, ptr %3, i64 12
  %14 = load i32, ptr %13, align 4
  %15 = getelementptr inbounds i8, ptr %3, i64 8
  %16 = load i32, ptr %15, align 8
  %17 = getelementptr inbounds i8, ptr %3, i64 4
  %18 = load i32, ptr %17, align 4
  %19 = load i32, ptr %3, align 8
  %20 = call i32 (ptr, i64, ptr, ...) @jio_snprintf(ptr noundef %0, i64 noundef %1, ptr noundef nonnull @.str.83, i32 noundef %9, i32 noundef %12, i32 noundef %14, i32 noundef %16, i32 noundef %18, i32 noundef %19) #25
  ret ptr %0
}